target datalayout = "e-m:e-p270:32:32-p271:32:32-p272:64:64-i64:64-i128:128-f80:128-n8:16:32:64-S128"
target triple = "x86_64-pc-linux-gnu"

%struct.Curl_ssl = type { %struct.curl_ssl_backend, i32, i64, ptr, ptr, ptr, ptr, ptr, ptr, ptr, ptr, ptr, ptr, ptr, ptr, ptr, ptr, ptr, ptr, ptr, ptr, ptr, ptr, ptr, ptr, ptr, ptr, ptr }
%struct.curl_ssl_backend = type { i32, ptr }
%struct.curltime = type { i64, i32 }
%struct.Curl_cfilter = type { ptr, ptr, ptr, ptr, i32, i8 }
%struct.ssl_connect_data = type { i32, i32, %struct.ssl_peer, ptr, ptr, %struct.cf_call_data, %struct.curltime, i32, i8 }
%struct.ssl_peer = type { ptr, ptr, ptr, i8 }
%struct.cf_call_data = type { ptr }

@Curl_ssl = dso_local global ptr @Curl_ssl_openssl, align 8

; Function Attrs: nounwind uwtable
define internal i32 @ssl_cf_cntrl(ptr noundef %0, ptr noundef %1, i32 noundef %2, i32 noundef %3, ptr noundef %4) #0 {
  %6 = alloca ptr, align 8
  %7 = alloca ptr, align 8
  %8 = alloca i32, align 4
  %9 = alloca i32, align 4
  %10 = alloca ptr, align 8
  %11 = alloca %struct.cf_call_data, align 8
  store ptr %0, ptr %6, align 8
  store ptr %1, ptr %7, align 8
  store i32 %2, ptr %8, align 4
  store i32 %3, ptr %9, align 4
  store ptr %4, ptr %10, align 8
  %12 = load i32, ptr %8, align 4
  switch i32 %12, label %74 [
    i32 1, label %13
    i32 2, label %44
  ]

13:                                               ; preds = %5
  %14 = load ptr, ptr @Curl_ssl, align 8
  %15 = getelementptr inbounds %struct.Curl_ssl, ptr %14, i32 0, i32 23
  %16 = load ptr, ptr %15, align 8
  %17 = icmp ne ptr %16, null
  br i1 %17, label %18, label %43

18:                                               ; preds = %13
  br label %19

19:                                               ; preds = %18
  %20 = load ptr, ptr %6, align 8
  %21 = getelementptr inbounds %struct.Curl_cfilter, ptr %20, i32 0, i32 2
  %22 = load ptr, ptr %21, align 8
  %23 = getelementptr inbounds %struct.ssl_connect_data, ptr %22, i32 0, i32 5
  call void @llvm.memcpy.p0.p0.i64(ptr align 8 %11, ptr align 8 %23, i64 8, i1 false)
  %24 = load ptr, ptr %7, align 8
  %25 = load ptr, ptr %6, align 8
  %26 = getelementptr inbounds %struct.Curl_cfilter, ptr %25, i32 0, i32 2
  %27 = load ptr, ptr %26, align 8
  %28 = getelementptr inbounds %struct.ssl_connect_data, ptr %27, i32 0, i32 5
  %29 = getelementptr inbounds %struct.cf_call_data, ptr %28, i32 0, i32 0
  store ptr %24, ptr %29, align 8
  br label %30

30:                                               ; preds = %19
  %31 = load ptr, ptr @Curl_ssl, align 8
  %32 = getelementptr inbounds %struct.Curl_ssl, ptr %31, i32 0, i32 23
  %33 = load ptr, ptr %32, align 8
  %34 = load ptr, ptr %6, align 8
  %35 = load ptr, ptr %7, align 8
  %36 = call zeroext i1 %33(ptr noundef %34, ptr noundef %35)
  br label %37

37:                                               ; preds = %30
  %38 = load ptr, ptr %6, align 8
  %39 = getelementptr inbounds %struct.Curl_cfilter, ptr %38, i32 0, i32 2
  %40 = load ptr, ptr %39, align 8
  %41 = getelementptr inbounds %struct.ssl_connect_data, ptr %40, i32 0, i32 5
  call void @llvm.memcpy.p0.p0.i64(ptr align 8 %41, ptr align 8 %11, i64 8, i1 false)
  br label %42

42:                                               ; preds = %37
  br label %43

43:                                               ; preds = %42, %13
  br label %75

44:                                               ; preds = %5
  %45 = load ptr, ptr @Curl_ssl, align 8
  %46 = getelementptr inbounds %struct.Curl_ssl, ptr %45, i32 0, i32 24
  %47 = load ptr, ptr %46, align 8
  %48 = icmp ne ptr %47, null
  br i1 %48, label %49, label %73

49:                                               ; preds = %44
  br label %50

50:                                               ; preds = %49
  %51 = load ptr, ptr %6, align 8
  %52 = getelementptr inbounds %struct.Curl_cfilter, ptr %51, i32 0, i32 2
  %53 = load ptr, ptr %52, align 8
  %54 = getelementptr inbounds %struct.ssl_connect_data, ptr %53, i32 0, i32 5
  call void @llvm.memcpy.p0.p0.i64(ptr align 8 %11, ptr align 8 %54, i64 8, i1 false)
  %55 = load ptr, ptr %7, align 8
  %56 = load ptr, ptr %6, align 8
  %57 = getelementptr inbounds %struct.Curl_cfilter, ptr %56, i32 0, i32 2
  %58 = load ptr, ptr %57, align 8
  %59 = getelementptr inbounds %struct.ssl_connect_data, ptr %58, i32 0, i32 5
  %60 = getelementptr inbounds %struct.cf_call_data, ptr %59, i32 0, i32 0
  store ptr %55, ptr %60, align 8
  br label %61

61:                                               ; preds = %50
  %62 = load ptr, ptr @Curl_ssl, align 8
  %63 = getelementptr inbounds %struct.Curl_ssl, ptr %62, i32 0, i32 24
  %64 = load ptr, ptr %63, align 8
  %65 = load ptr, ptr %6, align 8
  %66 = load ptr, ptr %7, align 8
  call void %64(ptr noundef %65, ptr noundef %66)
  br label %67

67:                                               ; preds = %61
  %68 = load ptr, ptr %6, align 8
  %69 = getelementptr inbounds %struct.Curl_cfilter, ptr %68, i32 0, i32 2
  %70 = load ptr, ptr %69, align 8
  %71 = getelementptr inbounds %struct.ssl_connect_data, ptr %70, i32 0, i32 5
  call void @llvm.memcpy.p0.p0.i64(ptr align 8 %71, ptr align 8 %11, i64 8, i1 false)
  br label %72

72:                                               ; preds = %67
  br label %73

73:                                               ; preds = %72, %44
  br label %75

74:                                               ; preds = %5
  br label %75

75:                                               ; preds = %74, %73, %43
  ret i32 0
}