; Function Attrs: nounwind uwtable
define internal noundef i32 @ssl_cf_cntrl(ptr noundef %0, ptr noundef %1, i32 noundef %2, i32 %3, ptr readnone captures(none) %4) #2 {
  switch i32 %2, label %26 [
    i32 1, label %6
    i32 2, label %16
  ]

6:                                                ; preds = %5
  %7 = load ptr, ptr @Curl_ssl, align 8
  %8 = getelementptr inbounds nuw i8, ptr %7, i64 192
  %9 = load ptr, ptr %8, align 8
  %.not15 = icmp eq ptr %9, null
  br i1 %.not15, label %26, label %10

10:                                               ; preds = %6
  %11 = getelementptr inbounds nuw i8, ptr %0, i64 16
  %12 = load ptr, ptr %11, align 8
  %13 = getelementptr inbounds nuw i8, ptr %12, i64 56
  %.sroa.0.0.copyload = load ptr, ptr %13, align 8
  store ptr %1, ptr %13, align 8
  %14 = load ptr, ptr %8, align 8
  %15 = tail call zeroext i1 %14(ptr noundef %0, ptr noundef %1) #18
  br label %.sink.split

16:                                               ; preds = %5
  %17 = load ptr, ptr @Curl_ssl, align 8
  %18 = getelementptr inbounds nuw i8, ptr %17, i64 200
  %19 = load ptr, ptr %18, align 8
  %.not = icmp eq ptr %19, null
  br i1 %.not, label %26, label %20

20:                                               ; preds = %16
  %21 = getelementptr inbounds nuw i8, ptr %0, i64 16
  %22 = load ptr, ptr %21, align 8
  %23 = getelementptr inbounds nuw i8, ptr %22, i64 56
  %.sroa.0.0.copyload2 = load ptr, ptr %23, align 8
  store ptr %1, ptr %23, align 8
  %24 = load ptr, ptr %18, align 8
  tail call void %24(ptr noundef %0, ptr noundef %1) #18
  br label %.sink.split

.sink.split:                                      ; preds = %10, %20
  %.sink16.in = phi ptr [ %21, %20 ], [ %11, %10 ]
  %.sroa.0.0.copyload2.sink = phi ptr [ %.sroa.0.0.copyload2, %20 ], [ %.sroa.0.0.copyload, %10 ]
  %.sink16 = load ptr, ptr %.sink16.in, align 8
  %25 = getelementptr inbounds nuw i8, ptr %.sink16, i64 56
  store ptr %.sroa.0.0.copyload2.sink, ptr %25, align 8
  br label %26

26:                                               ; preds = %.sink.split, %5, %16, %6
  ret i32 0
}